; Function Attrs: mustprogress nounwind uwtable
define hidden void @_ZN7Compile19set_cached_top_nodeEP4Node(ptr nocapture noundef nonnull align 8 dereferenceable(2316) %0, ptr noundef %1) local_unnamed_addr #0 align 2 {
  %.not = icmp eq ptr %1, null
  %3 = getelementptr inbounds i8, ptr %0, i64 744
  %4 = load ptr, ptr %3, align 8
  store ptr %1, ptr %3, align 8
  br i1 %.not, label %6, label %5

5:                                                ; preds = %2
  tail call void @_ZN4Node12setup_is_topEv(ptr noundef nonnull align 8 dereferenceable(52) %1) #17
  br label %6

6:                                                ; preds = %5, %2
  %.not7 = icmp eq ptr %4, null
  br i1 %.not7, label %8, label %7

7:                                                ; preds = %6
  tail call void @_ZN4Node12setup_is_topEv(ptr noundef nonnull align 8 dereferenceable(52) %4) #17
  br label %8

8:                                                ; preds = %7, %6
  ret void
}